; Function Attrs: mustprogress uwtable
define noundef double @_ZN6google8protobuf2io9Tokenizer10ParseFloatERKNSt7__cxx1112basic_stringIcSt11char_traitsIcESaIcEEE(ptr noundef nonnull align 8 dereferenceable(32) %text) local_unnamed_addr #6 align 2 {
entry:
  %end.i = alloca ptr, align 8
  call void @llvm.lifetime.start.p0(i64 8, ptr nonnull %end.i)
  %call.i = tail call noundef ptr @_ZNKSt7__cxx1112basic_stringIcSt11char_traitsIcESaIcEE5c_strEv(ptr noundef nonnull align 8 dereferenceable(32) %text) #23
  %call1.i = call noundef double @_ZN6google8protobuf2io14NoLocaleStrtodEPKcPPc(ptr noundef %call.i, ptr noundef nonnull %end.i)
  %0 = load ptr, ptr %end.i, align 8
  %1 = load i8, ptr %0, align 1
  switch i8 %1, label %if.end11.i [
    i8 101, label %if.then.i
    i8 69, label %if.then.i
  ]

if.then.i:                                        ; preds = %entry, %entry
  %incdec.ptr.i = getelementptr inbounds nuw i8, ptr %0, i64 1
  store ptr %incdec.ptr.i, ptr %end.i, align 8
  %2 = load i8, ptr %incdec.ptr.i, align 1
  switch i8 %2, label %if.end11.i [
    i8 45, label %if.then9.i
    i8 43, label %if.then9.i
  ]

if.then9.i:                                       ; preds = %if.then.i, %if.then.i
  %incdec.ptr10.i = getelementptr inbounds nuw i8, ptr %0, i64 2
  store ptr %incdec.ptr10.i, ptr %end.i, align 8
  %.pre.i = load i8, ptr %incdec.ptr10.i, align 1
  br label %if.end11.i

if.end11.i:                                       ; preds = %if.then9.i, %if.then.i, %entry
  %3 = phi i8 [ %2, %if.then.i ], [ %1, %entry ], [ %.pre.i, %if.then9.i ]
  %4 = phi ptr [ %incdec.ptr.i, %if.then.i ], [ %0, %entry ], [ %incdec.ptr10.i, %if.then9.i ]
  switch i8 %3, label %if.end19.i [
    i8 102, label %if.then17.i
    i8 70, label %if.then17.i
  ]

if.then17.i:                                      ; preds = %if.end11.i, %if.end11.i
  %incdec.ptr18.i = getelementptr inbounds nuw i8, ptr %4, i64 1
  store ptr %incdec.ptr18.i, ptr %end.i, align 8
  br label %if.end19.i

if.end19.i:                                       ; preds = %if.then17.i, %if.end11.i
  %call20.i = call noundef i64 @_ZNKSt7__cxx1112basic_stringIcSt11char_traitsIcESaIcEE4sizeEv(ptr noundef nonnull align 8 dereferenceable(32) %text) #23
  call void @llvm.lifetime.end.p0(i64 8, ptr nonnull %end.i)
  ret double %call1.i
}